; Function Attrs: mustprogress nounwind uwtable
define dso_local void @_ZN4node13AsyncResourceD0Ev(ptr noundef nonnull align 8 dereferenceable(40) %this) unnamed_addr #3 align 2 {
entry:
  store ptr getelementptr inbounds ({ [4 x ptr] }, ptr @_ZTVN4node13AsyncResourceE, i64 0, i32 0, i64 2), ptr %this, align 8
  %env_.i = getelementptr inbounds i8, ptr %this, i64 8
  %0 = load ptr, ptr %env_.i, align 8
  %async_context_.i = getelementptr inbounds i8, ptr %this, i64 24
  %agg.tmp.sroa.0.0.copyload.i = load double, ptr %async_context_.i, align 8
  %agg.tmp.sroa.2.0.async_context_.sroa_idx.i = getelementptr inbounds i8, ptr %this, i64 32
  %agg.tmp.sroa.2.0.copyload.i = load double, ptr %agg.tmp.sroa.2.0.async_context_.sroa_idx.i, align 8
  tail call void @_ZN4node16EmitAsyncDestroyEPNS_11EnvironmentENS_13async_contextE(ptr noundef %0, double %agg.tmp.sroa.0.0.copyload.i, double %agg.tmp.sroa.2.0.copyload.i) #9
  %resource_.i = getelementptr inbounds i8, ptr %this, i64 16
  %1 = load ptr, ptr %resource_.i, align 8
  %cmp.i.i.i = icmp eq ptr %1, null
  br i1 %cmp.i.i.i, label %_ZN4node13AsyncResourceD2Ev.exit, label %if.end.i.i

if.end.i.i:                                       ; preds = %entry
  tail call void @_ZN2v812api_internal13DisposeGlobalEPm(ptr noundef nonnull %1) #9
  br label %_ZN4node13AsyncResourceD2Ev.exit

_ZN4node13AsyncResourceD2Ev.exit:                 ; preds = %entry, %if.end.i.i
  tail call void @_ZdlPv(ptr noundef nonnull %this) #11
  ret void
}